target datalayout = "e-m:e-p270:32:32-p271:32:32-p272:64:64-i64:64-i128:128-f80:128-n8:16:32:64-S128"
target triple = "x86_64-pc-linux-gnu"

%struct.oidset = type { %struct.kh_oid_set }
%struct.kh_oid_set = type { i32, i32, i32, i32, ptr, ptr, ptr }
%struct.object = type { i32, %struct.object_id }
%struct.object_id = type { [32 x i8], i32 }

@the_repository = external global ptr, align 8
@arg_missing_action = internal global i32 0, align 4
@missing_objects = internal global %struct.oidset zeroinitializer, align 8
@.str.51 = private unnamed_addr constant [23 x i8] c"missing %s object '%s'\00", align 1
@.str.52 = private unnamed_addr constant [34 x i8] c"unexpected missing %s object '%s'\00", align 1
@.str.53 = private unnamed_addr constant [19 x i8] c"builtin/rev-list.c\00", align 1
@.str.54 = private unnamed_addr constant [25 x i8] c"unhandled missing_action\00", align 1

; Function Attrs: inlinehint nounwind uwtable
define internal void @finish_object__ma(ptr noundef %0) #4 {
  %2 = alloca ptr, align 8
  store ptr %0, ptr %2, align 8, !tbaa !137
  %3 = load i32, ptr @arg_missing_action, align 4, !tbaa !4
  switch i32 %3, label %34 [
    i32 0, label %4
    i32 1, label %13
    i32 2, label %14
    i32 3, label %18
  ]

4:                                                ; preds = %1
  %5 = load ptr, ptr %2, align 8, !tbaa !137
  %6 = load i32, ptr %5, align 4
  %7 = lshr i32 %6, 1
  %8 = and i32 %7, 7
  %9 = call ptr @type_name(i32 noundef %8)
  %10 = load ptr, ptr %2, align 8, !tbaa !137
  %11 = getelementptr inbounds nuw %struct.object, ptr %10, i32 0, i32 1
  %12 = call ptr @oid_to_hex(ptr noundef %11)
  call void (ptr, ...) @die(ptr noundef @.str.51, ptr noundef %9, ptr noundef %12) #11
  unreachable

13:                                               ; preds = %1
  br label %35

14:                                               ; preds = %1
  %15 = load ptr, ptr %2, align 8, !tbaa !137
  %16 = getelementptr inbounds nuw %struct.object, ptr %15, i32 0, i32 1
  %17 = call i32 @oidset_insert(ptr noundef @missing_objects, ptr noundef %16)
  br label %35

18:                                               ; preds = %1
  %19 = load ptr, ptr @the_repository, align 8, !tbaa !13
  %20 = load ptr, ptr %2, align 8, !tbaa !137
  %21 = getelementptr inbounds nuw %struct.object, ptr %20, i32 0, i32 1
  %22 = call i32 @is_promisor_object(ptr noundef %19, ptr noundef %21)
  %23 = icmp ne i32 %22, 0
  br i1 %23, label %24, label %25

24:                                               ; preds = %18
  br label %35

25:                                               ; preds = %18
  %26 = load ptr, ptr %2, align 8, !tbaa !137
  %27 = load i32, ptr %26, align 4
  %28 = lshr i32 %27, 1
  %29 = and i32 %28, 7
  %30 = call ptr @type_name(i32 noundef %29)
  %31 = load ptr, ptr %2, align 8, !tbaa !137
  %32 = getelementptr inbounds nuw %struct.object, ptr %31, i32 0, i32 1
  %33 = call ptr @oid_to_hex(ptr noundef %32)
  call void (ptr, ...) @die(ptr noundef @.str.52, ptr noundef %30, ptr noundef %33) #11
  unreachable

34:                                               ; preds = %1
  call void (ptr, i32, ptr, ...) @BUG_fl(ptr noundef @.str.53, i32 noundef 133, ptr noundef @.str.54) #11
  unreachable

35:                                               ; preds = %24, %14, %13
  ret void
}