; Function Attrs: inlinehint nounwind uwtable
define internal fastcc void @finish_object__ma(ptr noundef %0) unnamed_addr #6 {
  %2 = load i32, ptr @arg_missing_action, align 4, !tbaa !9
  switch i32 %2, label %default.unreachable [
    i32 0, label %3
    i32 1, label %23
    i32 2, label %10
    i32 3, label %13
  ]

3:                                                ; preds = %1
  %4 = load i32, ptr %0, align 4
  %5 = lshr i32 %4, 1
  %6 = and i32 %5, 7
  %7 = tail call ptr @type_name(i32 noundef %6) #11
  %8 = getelementptr inbounds nuw i8, ptr %0, i64 4
  %9 = tail call ptr @oid_to_hex(ptr noundef nonnull %8) #11
  tail call void (ptr, ...) @die(ptr noundef nonnull @.str.51, ptr noundef %7, ptr noundef %9) #13
  unreachable

10:                                               ; preds = %1
  %11 = getelementptr inbounds nuw i8, ptr %0, i64 4
  %12 = tail call i32 @oidset_insert(ptr noundef nonnull @missing_objects, ptr noundef nonnull %11) #11
  br label %23

13:                                               ; preds = %1
  %14 = load ptr, ptr @the_repository, align 8, !tbaa !4
  %15 = getelementptr inbounds nuw i8, ptr %0, i64 4
  %16 = tail call i32 @is_promisor_object(ptr noundef %14, ptr noundef nonnull %15) #11
  %.not = icmp eq i32 %16, 0
  br i1 %.not, label %17, label %23

17:                                               ; preds = %13
  %18 = load i32, ptr %0, align 4
  %19 = lshr i32 %18, 1
  %20 = and i32 %19, 7
  %21 = tail call ptr @type_name(i32 noundef %20) #11
  %22 = tail call ptr @oid_to_hex(ptr noundef nonnull %15) #11
  tail call void (ptr, ...) @die(ptr noundef nonnull @.str.52, ptr noundef %21, ptr noundef %22) #13
  unreachable

default.unreachable:                              ; preds = %1
  unreachable

23:                                               ; preds = %13, %1, %10
  ret void
}